; Function Attrs: nounwind sspstrong uwtable
define internal i64 @enumerator_peek(i64 noundef %0) #0 {
  %2 = tail call fastcc i64 @enumerator_peek_values(i64 noundef %0)
  %3 = icmp eq i64 %2, 0
  %4 = and i64 %2, 7
  %5 = icmp ne i64 %4, 0
  %6 = or i1 %3, %5
  br i1 %6, label %ary2sv.exit, label %rbimpl_RB_TYPE_P_fastpath.exit.i

rbimpl_RB_TYPE_P_fastpath.exit.i:                 ; preds = %1
  %7 = inttoptr i64 %2 to ptr
  %8 = load i64, ptr %7, align 8, !tbaa !21
  %9 = and i64 %8, 31
  %10 = icmp eq i64 %9, 7
  br i1 %10, label %11, label %ary2sv.exit

11:                                               ; preds = %rbimpl_RB_TYPE_P_fastpath.exit.i
  %12 = and i64 %8, 8192
  %.not.i.i = icmp eq i64 %12, 0
  br i1 %.not.i.i, label %16, label %13

13:                                               ; preds = %11
  %14 = lshr i64 %8, 15
  %15 = and i64 %14, 127
  br label %rb_array_len.exit.i

16:                                               ; preds = %11
  %17 = getelementptr inbounds nuw i8, ptr %7, i64 16
  %18 = load i64, ptr %17, align 8, !tbaa !44
  br label %rb_array_len.exit.i

rb_array_len.exit.i:                              ; preds = %16, %13
  %.0.i8.i = phi i64 [ %15, %13 ], [ %18, %16 ]
  switch i64 %.0.i8.i, label %26 [
    i64 0, label %ary2sv.exit
    i64 1, label %19
  ]

19:                                               ; preds = %rb_array_len.exit.i
  br i1 %.not.i.i, label %22, label %20

20:                                               ; preds = %19
  %21 = getelementptr inbounds nuw i8, ptr %7, i64 16
  br label %RARRAY_AREF.exit.i

22:                                               ; preds = %19
  %23 = getelementptr inbounds nuw i8, ptr %7, i64 32
  %24 = load ptr, ptr %23, align 8, !tbaa !44
  br label %RARRAY_AREF.exit.i

RARRAY_AREF.exit.i:                               ; preds = %22, %20
  %.0.i.i.i = phi ptr [ %21, %20 ], [ %24, %22 ]
  %25 = load i64, ptr %.0.i.i.i, align 8, !tbaa !7
  br label %ary2sv.exit

26:                                               ; preds = %rb_array_len.exit.i
  %27 = tail call i64 @rb_ary_dup(i64 noundef %2) #18
  br label %ary2sv.exit

ary2sv.exit:                                      ; preds = %1, %rbimpl_RB_TYPE_P_fastpath.exit.i, %rb_array_len.exit.i, %RARRAY_AREF.exit.i, %26
  %.0.i = phi i64 [ %27, %26 ], [ %25, %RARRAY_AREF.exit.i ], [ %2, %rbimpl_RB_TYPE_P_fastpath.exit.i ], [ 4, %rb_array_len.exit.i ], [ %2, %1 ]
  ret i64 %.0.i
}